; Function Attrs: nounwind uwtable
define range(i32 0, 64) i32 @GC_new_proc(ptr noundef %0) local_unnamed_addr #1 {
  %.b1 = load i1, ptr @GC_need_to_lock, align 4
  br i1 %.b1, label %2, label %GC_lock.exit

2:                                                ; preds = %1
  %3 = tail call i32 @pthread_mutex_trylock(ptr noundef nonnull @GC_allocate_ml) #41
  %.not = icmp eq i32 %3, 0
  br i1 %.not, label %GC_lock.exit, label %4

4:                                                ; preds = %2
  %5 = load i32, ptr @GC_nprocs, align 4
  %6 = icmp eq i32 %5, 1
  br i1 %6, label %GC_generic_lock.exit.sink.split.i, label %7

7:                                                ; preds = %4
  %8 = load atomic volatile i8, ptr @GC_collecting monotonic, align 1
  %.not.i = icmp eq i8 %8, 0
  br i1 %.not.i, label %9, label %GC_generic_lock.exit.sink.split.i

9:                                                ; preds = %7
  %10 = tail call i32 @pthread_mutex_trylock(ptr noundef nonnull @GC_allocate_ml) #41
  %11 = icmp eq i32 %10, 0
  br i1 %11, label %GC_lock.exit, label %.preheader.i.i

.preheader.i.i:                                   ; preds = %9, %15
  %.079.i.i = phi i32 [ %16, %15 ], [ 1, %9 ]
  fence syncscope("singlethread") seq_cst
  %12 = tail call i32 @pthread_mutex_trylock(ptr noundef nonnull @GC_allocate_ml) #41
  switch i32 %12, label %13 [
    i32 0, label %GC_lock.exit
    i32 16, label %15
  ]

13:                                               ; preds = %.preheader.i.i
  %14 = load ptr, ptr @GC_on_abort, align 8
  tail call void %14(ptr noundef nonnull @.str.340) #41
  tail call void @abort() #47
  unreachable

15:                                               ; preds = %.preheader.i.i
  %16 = shl nuw nsw i32 %.079.i.i, 1
  %17 = icmp samesign ult i32 %.079.i.i, 65
  br i1 %17, label %.preheader.i.i, label %GC_generic_lock.exit.sink.split.i, !llvm.loop !4

GC_generic_lock.exit.sink.split.i:                ; preds = %15, %7, %4
  %18 = tail call i32 @pthread_mutex_lock(ptr noundef nonnull @GC_allocate_ml) #41
  br label %GC_lock.exit

GC_lock.exit:                                     ; preds = %.preheader.i.i, %GC_generic_lock.exit.sink.split.i, %9, %1, %2
  %19 = load i32, ptr @GC_n_mark_procs, align 4
  %20 = icmp ult i32 %19, 64
  br i1 %20, label %GC_new_proc_inner.exit, label %21

21:                                               ; preds = %GC_lock.exit
  %22 = load ptr, ptr @GC_on_abort, align 8
  tail call void %22(ptr noundef nonnull @.str.96) #41
  tail call void @abort() #47
  unreachable

GC_new_proc_inner.exit:                           ; preds = %GC_lock.exit
  %23 = add nuw nsw i32 %19, 1
  store i32 %23, ptr @GC_n_mark_procs, align 4
  %24 = zext nneg i32 %19 to i64
  %25 = getelementptr inbounds nuw [64 x ptr], ptr getelementptr inbounds nuw (i8, ptr @GC_arrays, i64 448), i64 0, i64 %24
  store ptr %0, ptr %25, align 8
  %.b = load i1, ptr @GC_need_to_lock, align 4
  br i1 %.b, label %26, label %28

26:                                               ; preds = %GC_new_proc_inner.exit
  %27 = tail call i32 @pthread_mutex_unlock(ptr noundef nonnull @GC_allocate_ml) #41
  br label %28

28:                                               ; preds = %GC_new_proc_inner.exit, %26
  ret i32 %19
}